target datalayout = "e-m:e-p270:32:32-p271:32:32-p272:64:64-i64:64-i128:128-f80:128-n8:16:32:64-S128"
target triple = "x86_64-pc-linux-gnu"

%struct.EPlan = type { ptr, i32, ptr }

@TopMemoryContext = external global ptr, align 8
@CurrentMemoryContext = external global ptr, align 8

; Function Attrs: inlinehint nounwind uwtable
define internal ptr @MemoryContextSwitchTo(ptr noundef %0) #4 {
  %2 = alloca ptr, align 8
  %3 = alloca ptr, align 8
  store ptr %0, ptr %2, align 8
  call void @llvm.lifetime.start.p0(i64 8, ptr %3) #8
  %4 = load ptr, ptr @CurrentMemoryContext, align 8
  store ptr %4, ptr %3, align 8
  %5 = load ptr, ptr %2, align 8
  store ptr %5, ptr @CurrentMemoryContext, align 8
  %6 = load ptr, ptr %3, align 8
  call void @llvm.lifetime.end.p0(i64 8, ptr %3) #8
  ret ptr %6
}

; Function Attrs: nounwind uwtable
define internal ptr @find_plan(ptr noundef %0, ptr noundef %1, ptr noundef %2) #0 {
  %4 = alloca ptr, align 8
  %5 = alloca ptr, align 8
  %6 = alloca ptr, align 8
  %7 = alloca ptr, align 8
  %8 = alloca ptr, align 8
  %9 = alloca i32, align 4
  %10 = alloca ptr, align 8
  %11 = alloca i32, align 4
  store ptr %0, ptr %5, align 8
  store ptr %1, ptr %6, align 8
  store ptr %2, ptr %7, align 8
  call void @llvm.lifetime.start.p0(i64 8, ptr %8) #8
  call void @llvm.lifetime.start.p0(i64 4, ptr %9) #8
  call void @llvm.lifetime.start.p0(i64 8, ptr %10) #8
  %12 = load ptr, ptr @TopMemoryContext, align 8
  %13 = call ptr @MemoryContextSwitchTo(ptr noundef %12)
  store ptr %13, ptr %10, align 8
  %14 = load ptr, ptr %7, align 8
  %15 = load i32, ptr %14, align 4
  %16 = icmp sgt i32 %15, 0
  br i1 %16, label %17, label %66

17:                                               ; preds = %3
  store i32 0, ptr %9, align 4
  br label %18

18:                                               ; preds = %36, %17
  %19 = load i32, ptr %9, align 4
  %20 = load ptr, ptr %7, align 8
  %21 = load i32, ptr %20, align 4
  %22 = icmp slt i32 %19, %21
  br i1 %22, label %23, label %39

23:                                               ; preds = %18
  %24 = load ptr, ptr %6, align 8
  %25 = load ptr, ptr %24, align 8
  %26 = load i32, ptr %9, align 4
  %27 = sext i32 %26 to i64
  %28 = getelementptr inbounds %struct.EPlan, ptr %25, i64 %27
  %29 = getelementptr inbounds nuw %struct.EPlan, ptr %28, i32 0, i32 0
  %30 = load ptr, ptr %29, align 8
  %31 = load ptr, ptr %5, align 8
  %32 = call i32 @strcmp(ptr noundef %30, ptr noundef %31) #10
  %33 = icmp eq i32 %32, 0
  br i1 %33, label %34, label %35

34:                                               ; preds = %23
  br label %39

35:                                               ; preds = %23
  br label %36

36:                                               ; preds = %35
  %37 = load i32, ptr %9, align 4
  %38 = add i32 %37, 1
  store i32 %38, ptr %9, align 4
  br label %18, !llvm.loop !8

39:                                               ; preds = %34, %18
  %40 = load i32, ptr %9, align 4
  %41 = load ptr, ptr %7, align 8
  %42 = load i32, ptr %41, align 4
  %43 = icmp ne i32 %40, %42
  br i1 %43, label %44, label %52

44:                                               ; preds = %39
  %45 = load ptr, ptr %10, align 8
  %46 = call ptr @MemoryContextSwitchTo(ptr noundef %45)
  %47 = load ptr, ptr %6, align 8
  %48 = load ptr, ptr %47, align 8
  %49 = load i32, ptr %9, align 4
  %50 = sext i32 %49 to i64
  %51 = getelementptr inbounds %struct.EPlan, ptr %48, i64 %50
  store ptr %51, ptr %4, align 8
  store i32 1, ptr %11, align 4
  br label %85

52:                                               ; preds = %39
  %53 = load ptr, ptr %6, align 8
  %54 = load ptr, ptr %53, align 8
  %55 = load i32, ptr %9, align 4
  %56 = add i32 %55, 1
  %57 = sext i32 %56 to i64
  %58 = mul i64 %57, 24
  %59 = call ptr @repalloc(ptr noundef %54, i64 noundef %58)
  %60 = load ptr, ptr %6, align 8
  store ptr %59, ptr %60, align 8
  %61 = load ptr, ptr %6, align 8
  %62 = load ptr, ptr %61, align 8
  %63 = load i32, ptr %9, align 4
  %64 = sext i32 %63 to i64
  %65 = getelementptr inbounds %struct.EPlan, ptr %62, i64 %64
  store ptr %65, ptr %8, align 8
  br label %70

66:                                               ; preds = %3
  %67 = call ptr @palloc(i64 noundef 24)
  %68 = load ptr, ptr %6, align 8
  store ptr %67, ptr %68, align 8
  store ptr %67, ptr %8, align 8
  store i32 0, ptr %9, align 4
  %69 = load ptr, ptr %7, align 8
  store i32 0, ptr %69, align 4
  br label %70

70:                                               ; preds = %66, %52
  %71 = load ptr, ptr %5, align 8
  %72 = call ptr @pstrdup(ptr noundef %71)
  %73 = load ptr, ptr %8, align 8
  %74 = getelementptr inbounds nuw %struct.EPlan, ptr %73, i32 0, i32 0
  store ptr %72, ptr %74, align 8
  %75 = load ptr, ptr %8, align 8
  %76 = getelementptr inbounds nuw %struct.EPlan, ptr %75, i32 0, i32 1
  store i32 0, ptr %76, align 8
  %77 = load ptr, ptr %8, align 8
  %78 = getelementptr inbounds nuw %struct.EPlan, ptr %77, i32 0, i32 2
  store ptr null, ptr %78, align 8
  %79 = load ptr, ptr %7, align 8
  %80 = load i32, ptr %79, align 4
  %81 = add i32 %80, 1
  store i32 %81, ptr %79, align 4
  %82 = load ptr, ptr %10, align 8
  %83 = call ptr @MemoryContextSwitchTo(ptr noundef %82)
  %84 = load ptr, ptr %8, align 8
  store ptr %84, ptr %4, align 8
  store i32 1, ptr %11, align 4
  br label %85

85:                                               ; preds = %70, %44
  call void @llvm.lifetime.end.p0(i64 8, ptr %10) #8
  call void @llvm.lifetime.end.p0(i64 4, ptr %9) #8
  call void @llvm.lifetime.end.p0(i64 8, ptr %8) #8
  %86 = load ptr, ptr %4, align 8
  ret ptr %86
}