; Function Attrs: nounwind uwtable
define internal fastcc ptr @find_plan(ptr noundef nonnull %0, ptr noundef captures(none) %1, ptr noundef captures(none) %2) unnamed_addr #1 {
  %4 = load ptr, ptr @TopMemoryContext, align 8
  %5 = load ptr, ptr @CurrentMemoryContext, align 8
  store ptr %4, ptr @CurrentMemoryContext, align 8
  %6 = load i32, ptr %2, align 4
  %7 = icmp sgt i32 %6, 0
  br i1 %7, label %.preheader, label %26

.preheader:                                       ; preds = %3
  %8 = load ptr, ptr %1, align 8
  %wide.trip.count = zext nneg i32 %6 to i64
  br label %9

9:                                                ; preds = %.preheader, %14
  %indvars.iv = phi i64 [ 0, %.preheader ], [ %indvars.iv.next, %14 ]
  %10 = getelementptr inbounds nuw %struct.EPlan, ptr %8, i64 %indvars.iv
  %11 = load ptr, ptr %10, align 8
  %12 = tail call i32 @strcmp(ptr noundef nonnull dereferenceable(1) %11, ptr noundef nonnull dereferenceable(1) %0) #11
  %13 = icmp eq i32 %12, 0
  br i1 %13, label %15, label %14

14:                                               ; preds = %9
  %indvars.iv.next = add nuw nsw i64 %indvars.iv, 1
  %exitcond.not = icmp eq i64 %indvars.iv.next, %wide.trip.count
  br i1 %exitcond.not, label %.thread, label %9, !llvm.loop !8

15:                                               ; preds = %9
  %16 = trunc nuw nsw i64 %indvars.iv to i32
  %.not = icmp eq i32 %6, %16
  br i1 %.not, label %.thread, label %17

17:                                               ; preds = %15
  store ptr %5, ptr @CurrentMemoryContext, align 8
  %18 = load ptr, ptr %1, align 8
  %19 = and i64 %indvars.iv, 4294967295
  %20 = getelementptr inbounds nuw %struct.EPlan, ptr %18, i64 %19
  br label %34

.thread:                                          ; preds = %14, %15
  %21 = add nuw i32 %6, 1
  %22 = sext i32 %21 to i64
  %23 = mul nsw i64 %22, 24
  %24 = tail call ptr @repalloc(ptr noundef nonnull %8, i64 noundef %23) #9
  store ptr %24, ptr %1, align 8
  %25 = getelementptr inbounds nuw %struct.EPlan, ptr %24, i64 %wide.trip.count
  br label %28

26:                                               ; preds = %3
  %27 = tail call ptr @palloc(i64 noundef 24) #9
  store ptr %27, ptr %1, align 8
  store i32 0, ptr %2, align 4
  br label %28

28:                                               ; preds = %26, %.thread
  %.027 = phi ptr [ %25, %.thread ], [ %27, %26 ]
  %29 = tail call ptr @pstrdup(ptr noundef nonnull %0) #9
  store ptr %29, ptr %.027, align 8
  %30 = getelementptr inbounds nuw i8, ptr %.027, i64 8
  store i32 0, ptr %30, align 8
  %31 = getelementptr inbounds nuw i8, ptr %.027, i64 16
  store ptr null, ptr %31, align 8
  %32 = load i32, ptr %2, align 4
  %33 = add i32 %32, 1
  store i32 %33, ptr %2, align 4
  store ptr %5, ptr @CurrentMemoryContext, align 8
  br label %34

34:                                               ; preds = %28, %17
  %.0 = phi ptr [ %20, %17 ], [ %.027, %28 ]
  ret ptr %.0
}